target datalayout = "e-m:e-p270:32:32-p271:32:32-p272:64:64-i64:64-i128:128-f80:128-n8:16:32:64-S128"
target triple = "x86_64-pc-linux-gnu"

%struct.QArrayData = type { %"class.QtPrivate::RefCount", i32, i32, i64 }
%"class.QtPrivate::RefCount" = type { %class.QBasicAtomicInteger }
%class.QBasicAtomicInteger = type { %"struct.std::atomic" }
%"struct.std::atomic" = type { %"struct.std::__atomic_base" }
%"struct.std::__atomic_base" = type { i32 }
%class.QByteArray = type { ptr }
%"class.vcg::tri::io::VertexGrid" = type { i32, i32, %class.QByteArray }
%class.QFlags.302 = type { i32 }
%"struct.vcg::tri::io::VertexGrid::Vertex" = type { i8, float, float, float, i8, i8, i8, i8 }

; Function Attrs: noreturn nounwind uwtable
define linkonce_odr hidden void @__clang_call_terminate(ptr noundef %0) #9 comdat {
  %2 = call ptr @__cxa_begin_catch(ptr %0) #4
  call void @_ZSt9terminatev() #20
  unreachable
}

; Function Attrs: mustprogress nounwind uwtable
define linkonce_odr noundef i32 @_ZStanSt12memory_orderSt23__memory_order_modifier(i32 noundef %0, i32 noundef %1) #0 comdat {
  %3 = alloca i32, align 4
  %4 = alloca i32, align 4
  store i32 %0, ptr %3, align 4
  store i32 %1, ptr %4, align 4
  %5 = load i32, ptr %3, align 4
  %6 = load i32, ptr %4, align 4
  %7 = and i32 %5, %6
  ret i32 %7
}

; Function Attrs: mustprogress nounwind uwtable
define linkonce_odr noundef i32 @_ZN10QAtomicOpsIiE11loadRelaxedIiEET_RKSt6atomicIS2_E(ptr noundef nonnull align 4 dereferenceable(4) %0) #0 comdat align 2 personality ptr @__gxx_personality_v0 {
  %2 = alloca ptr, align 8
  %3 = alloca i32, align 4
  %4 = alloca i32, align 4
  %5 = alloca i32, align 4
  %6 = alloca ptr, align 8
  store ptr %0, ptr %6, align 8
  %7 = load ptr, ptr %6, align 8
  store ptr %7, ptr %2, align 8
  store i32 0, ptr %3, align 4
  %8 = load ptr, ptr %2, align 8
  %9 = load i32, ptr %3, align 4
  %10 = invoke noundef i32 @_ZStanSt12memory_orderSt23__memory_order_modifier(i32 noundef %9, i32 noundef 65535)
          to label %11 unwind label %19

11:                                               ; preds = %1
  store i32 %10, ptr %4, align 4
  %12 = load i32, ptr %3, align 4
  switch i32 %12, label %13 [
    i32 1, label %15
    i32 2, label %15
    i32 5, label %17
  ]

13:                                               ; preds = %11
  %14 = load atomic i32, ptr %8 monotonic, align 4
  store i32 %14, ptr %5, align 4
  br label %22

15:                                               ; preds = %11, %11
  %16 = load atomic i32, ptr %8 acquire, align 4
  store i32 %16, ptr %5, align 4
  br label %22

17:                                               ; preds = %11
  %18 = load atomic i32, ptr %8 seq_cst, align 4
  store i32 %18, ptr %5, align 4
  br label %22

19:                                               ; preds = %1
  %20 = landingpad { ptr, i32 }
          catch ptr null
  %21 = extractvalue { ptr, i32 } %20, 0
  call void @__clang_call_terminate(ptr %21) #20
  unreachable

22:                                               ; preds = %17, %15, %13
  %23 = load i32, ptr %5, align 4
  ret i32 %23
}

; Function Attrs: mustprogress nounwind uwtable
define linkonce_odr noundef nonnull align 4 dereferenceable(4) ptr @_ZN6QFlagsIN10QArrayData16AllocationOptionEEoRES1_(ptr noundef nonnull align 4 dereferenceable(4) %0, i32 noundef %1) #0 comdat align 2 {
  %3 = alloca ptr, align 8
  %4 = alloca i32, align 4
  store ptr %0, ptr %3, align 8
  store i32 %1, ptr %4, align 4
  %5 = load ptr, ptr %3, align 8
  %6 = load i32, ptr %4, align 4
  %7 = getelementptr inbounds %class.QFlags.302, ptr %5, i32 0, i32 0
  %8 = load i32, ptr %7, align 4
  %9 = or i32 %8, %6
  store i32 %9, ptr %7, align 4
  ret ptr %5
}

; Function Attrs: mustprogress nounwind uwtable
define linkonce_odr void @_ZN6QFlagsIN10QArrayData16AllocationOptionEEC2Ev(ptr noundef nonnull align 4 dereferenceable(4) %0) unnamed_addr #0 comdat align 2 {
  %2 = alloca ptr, align 8
  store ptr %0, ptr %2, align 8
  %3 = load ptr, ptr %2, align 8
  %4 = getelementptr inbounds %class.QFlags.302, ptr %3, i32 0, i32 0
  store i32 0, ptr %4, align 4
  ret void
}

; Function Attrs: mustprogress nounwind uwtable
define linkonce_odr noundef i32 @_ZNK19QBasicAtomicIntegerIiE11loadRelaxedEv(ptr noundef nonnull align 4 dereferenceable(4) %0) #0 comdat align 2 {
  %2 = alloca ptr, align 8
  store ptr %0, ptr %2, align 8
  %3 = load ptr, ptr %2, align 8
  %4 = getelementptr inbounds %class.QBasicAtomicInteger, ptr %3, i32 0, i32 0
  %5 = call noundef i32 @_ZN10QAtomicOpsIiE11loadRelaxedIiEET_RKSt6atomicIS2_E(ptr noundef nonnull align 4 dereferenceable(4) %4) #4
  ret i32 %5
}

; Function Attrs: mustprogress nounwind uwtable
define linkonce_odr noundef ptr @_ZN10QArrayData4dataEv(ptr noundef nonnull align 8 dereferenceable(24) %0) #0 comdat align 2 {
  %2 = alloca ptr, align 8
  store ptr %0, ptr %2, align 8
  %3 = load ptr, ptr %2, align 8
  %4 = getelementptr inbounds %struct.QArrayData, ptr %3, i32 0, i32 3
  %5 = load i64, ptr %4, align 8
  %6 = getelementptr inbounds i8, ptr %3, i64 %5
  ret ptr %6
}

; Function Attrs: mustprogress nounwind uwtable
define linkonce_odr i32 @_ZNK10QArrayData11detachFlagsEv(ptr noundef nonnull align 8 dereferenceable(24) %0) #0 comdat align 2 {
  %2 = alloca %class.QFlags.302, align 4
  %3 = alloca ptr, align 8
  store ptr %0, ptr %3, align 8
  %4 = load ptr, ptr %3, align 8
  call void @_ZN6QFlagsIN10QArrayData16AllocationOptionEEC2Ev(ptr noundef nonnull align 4 dereferenceable(4) %2) #4
  %5 = getelementptr inbounds %struct.QArrayData, ptr %4, i32 0, i32 2
  %6 = load i32, ptr %5, align 8
  %7 = lshr i32 %6, 31
  %8 = icmp ne i32 %7, 0
  br i1 %8, label %9, label %11

9:                                                ; preds = %1
  %10 = call noundef nonnull align 4 dereferenceable(4) ptr @_ZN6QFlagsIN10QArrayData16AllocationOptionEEoRES1_(ptr noundef nonnull align 4 dereferenceable(4) %2, i32 noundef 1) #4
  br label %11

11:                                               ; preds = %9, %1
  %12 = getelementptr inbounds %class.QFlags.302, ptr %2, i32 0, i32 0
  %13 = load i32, ptr %12, align 4
  ret i32 %13
}

; Function Attrs: mustprogress nounwind uwtable
define linkonce_odr noundef zeroext i1 @_ZNK9QtPrivate8RefCount8isSharedEv(ptr noundef nonnull align 4 dereferenceable(4) %0) #0 comdat align 2 {
  %2 = alloca ptr, align 8
  %3 = alloca i32, align 4
  store ptr %0, ptr %2, align 8
  %4 = load ptr, ptr %2, align 8
  %5 = getelementptr inbounds %"class.QtPrivate::RefCount", ptr %4, i32 0, i32 0
  %6 = call noundef i32 @_ZNK19QBasicAtomicIntegerIiE11loadRelaxedEv(ptr noundef nonnull align 4 dereferenceable(4) %5) #4
  store i32 %6, ptr %3, align 4
  %7 = load i32, ptr %3, align 4
  %8 = icmp ne i32 %7, 1
  br i1 %8, label %9, label %12

9:                                                ; preds = %1
  %10 = load i32, ptr %3, align 4
  %11 = icmp ne i32 %10, 0
  br label %12

12:                                               ; preds = %9, %1
  %13 = phi i1 [ false, %1 ], [ %11, %9 ]
  ret i1 %13
}

; Function Attrs: mustprogress nounwind uwtable
define linkonce_odr noundef ptr @_ZN15QTypedArrayDataIcE4dataEv(ptr noundef nonnull align 8 dereferenceable(24) %0) #0 comdat align 2 {
  %2 = alloca ptr, align 8
  store ptr %0, ptr %2, align 8
  %3 = load ptr, ptr %2, align 8
  %4 = call noundef ptr @_ZN10QArrayData4dataEv(ptr noundef nonnull align 8 dereferenceable(24) %3)
  ret ptr %4
}

; Function Attrs: mustprogress uwtable
define linkonce_odr void @_ZN10QByteArray6detachEv(ptr noundef nonnull align 8 dereferenceable(8) %0) #5 comdat align 2 {
  %2 = alloca ptr, align 8
  %3 = alloca %class.QFlags.302, align 4
  store ptr %0, ptr %2, align 8
  %4 = load ptr, ptr %2, align 8
  %5 = getelementptr inbounds %class.QByteArray, ptr %4, i32 0, i32 0
  %6 = load ptr, ptr %5, align 8
  %7 = getelementptr inbounds %struct.QArrayData, ptr %6, i32 0, i32 0
  %8 = call noundef zeroext i1 @_ZNK9QtPrivate8RefCount8isSharedEv(ptr noundef nonnull align 4 dereferenceable(4) %7) #4
  br i1 %8, label %15, label %9

9:                                                ; preds = %1
  %10 = getelementptr inbounds %class.QByteArray, ptr %4, i32 0, i32 0
  %11 = load ptr, ptr %10, align 8
  %12 = getelementptr inbounds %struct.QArrayData, ptr %11, i32 0, i32 3
  %13 = load i64, ptr %12, align 8
  %14 = icmp ne i64 %13, 24
  br i1 %14, label %15, label %27

15:                                               ; preds = %9, %1
  %16 = getelementptr inbounds %class.QByteArray, ptr %4, i32 0, i32 0
  %17 = load ptr, ptr %16, align 8
  %18 = getelementptr inbounds %struct.QArrayData, ptr %17, i32 0, i32 1
  %19 = load i32, ptr %18, align 4
  %20 = add i32 %19, 1
  %21 = getelementptr inbounds %class.QByteArray, ptr %4, i32 0, i32 0
  %22 = load ptr, ptr %21, align 8
  %23 = call i32 @_ZNK10QArrayData11detachFlagsEv(ptr noundef nonnull align 8 dereferenceable(24) %22)
  %24 = getelementptr inbounds %class.QFlags.302, ptr %3, i32 0, i32 0
  store i32 %23, ptr %24, align 4
  %25 = getelementptr inbounds %class.QFlags.302, ptr %3, i32 0, i32 0
  %26 = load i32, ptr %25, align 4
  call void @_ZN10QByteArray11reallocDataEj6QFlagsIN10QArrayData16AllocationOptionEE(ptr noundef nonnull align 8 dereferenceable(8) %4, i32 noundef %20, i32 %26)
  br label %27

27:                                               ; preds = %15, %9
  ret void
}

; Function Attrs: mustprogress uwtable
define linkonce_odr noundef ptr @_ZN10QByteArray4dataEv(ptr noundef nonnull align 8 dereferenceable(8) %0) #5 comdat align 2 {
  %2 = alloca ptr, align 8
  store ptr %0, ptr %2, align 8
  %3 = load ptr, ptr %2, align 8
  call void @_ZN10QByteArray6detachEv(ptr noundef nonnull align 8 dereferenceable(8) %3)
  %4 = getelementptr inbounds %class.QByteArray, ptr %3, i32 0, i32 0
  %5 = load ptr, ptr %4, align 8
  %6 = call noundef ptr @_ZN15QTypedArrayDataIcE4dataEv(ptr noundef nonnull align 8 dereferenceable(24) %5)
  ret ptr %6
}

; Function Attrs: mustprogress nounwind uwtable
define linkonce_odr noundef i32 @_ZNK10QByteArray4sizeEv(ptr noundef nonnull align 8 dereferenceable(8) %0) #0 comdat align 2 {
  %2 = alloca ptr, align 8
  store ptr %0, ptr %2, align 8
  %3 = load ptr, ptr %2, align 8
  %4 = getelementptr inbounds %class.QByteArray, ptr %3, i32 0, i32 0
  %5 = load ptr, ptr %4, align 8
  %6 = getelementptr inbounds %struct.QArrayData, ptr %5, i32 0, i32 1
  %7 = load i32, ptr %6, align 4
  ret i32 %7
}

; Function Attrs: mustprogress uwtable
define noundef signext i8 @_ZN3vcg3tri2io10VertexGrid4BlueEii(ptr noundef nonnull align 8 dereferenceable(16) %0, i32 noundef %1, i32 noundef %2) #5 align 2 {
  %4 = alloca i8, align 1
  %5 = alloca ptr, align 8
  %6 = alloca i32, align 4
  %7 = alloca i32, align 4
  %8 = alloca i8, align 1
  %9 = alloca ptr, align 8
  store ptr %0, ptr %5, align 8
  store i32 %1, ptr %6, align 4
  store i32 %2, ptr %7, align 4
  %10 = load ptr, ptr %5, align 8
  %11 = load i32, ptr %6, align 4
  %12 = getelementptr inbounds %"class.vcg::tri::io::VertexGrid", ptr %10, i32 0, i32 0
  %13 = load i32, ptr %12, align 8
  %14 = icmp sgt i32 %11, %13
  br i1 %14, label %30, label %15

15:                                               ; preds = %3
  %16 = load i32, ptr %7, align 4
  %17 = getelementptr inbounds %"class.vcg::tri::io::VertexGrid", ptr %10, i32 0, i32 1
  %18 = load i32, ptr %17, align 4
  %19 = icmp sgt i32 %16, %18
  br i1 %19, label %30, label %20

20:                                               ; preds = %15
  %21 = load i32, ptr %6, align 4
  %22 = load i32, ptr %7, align 4
  %23 = mul nsw i32 %21, %22
  %24 = sext i32 %23 to i64
  %25 = mul i64 %24, 20
  %26 = trunc i64 %25 to i32
  %27 = getelementptr inbounds %"class.vcg::tri::io::VertexGrid", ptr %10, i32 0, i32 2
  %28 = call noundef i32 @_ZNK10QByteArray4sizeEv(ptr noundef nonnull align 8 dereferenceable(8) %27)
  %29 = icmp sgt i32 %26, %28
  br i1 %29, label %30, label %31

30:                                               ; preds = %20, %15, %3
  store i8 10, ptr %4, align 1
  br label %46

31:                                               ; preds = %20
  %32 = getelementptr inbounds %"class.vcg::tri::io::VertexGrid", ptr %10, i32 0, i32 2
  %33 = call noundef ptr @_ZN10QByteArray4dataEv(ptr noundef nonnull align 8 dereferenceable(8) %32)
  %34 = load i32, ptr %7, align 4
  %35 = getelementptr inbounds %"class.vcg::tri::io::VertexGrid", ptr %10, i32 0, i32 0
  %36 = load i32, ptr %35, align 8
  %37 = mul nsw i32 %34, %36
  %38 = load i32, ptr %6, align 4
  %39 = add nsw i32 %37, %38
  %40 = sext i32 %39 to i64
  %41 = getelementptr inbounds %"struct.vcg::tri::io::VertexGrid::Vertex", ptr %33, i64 %40
  store ptr %41, ptr %9, align 8
  %42 = load ptr, ptr %9, align 8
  %43 = getelementptr inbounds %"struct.vcg::tri::io::VertexGrid::Vertex", ptr %42, i32 0, i32 7
  %44 = load i8, ptr %43, align 1
  store i8 %44, ptr %8, align 1
  %45 = load i8, ptr %8, align 1
  store i8 %45, ptr %4, align 1
  br label %46

46:                                               ; preds = %31, %30
  %47 = load i8, ptr %4, align 1
  ret i8 %47
}