; Function Attrs: mustprogress uwtable
define noundef signext i8 @_ZN3vcg3tri2io10VertexGrid4BlueEii(ptr noundef nonnull align 8 dereferenceable(16) %0, i32 noundef %1, i32 noundef %2) local_unnamed_addr #9 align 2 personality ptr @__gxx_personality_v0 {
  %4 = load i32, ptr %0, align 8
  %5 = icmp slt i32 %4, %1
  %6 = getelementptr inbounds i8, ptr %0, i64 4
  %7 = load i32, ptr %6, align 4
  %8 = icmp slt i32 %7, %2
  %or.cond = select i1 %5, i1 true, i1 %8
  br i1 %or.cond, label %36, label %9

9:                                                ; preds = %3
  %10 = mul i32 %1, 20
  %11 = mul i32 %10, %2
  %12 = getelementptr inbounds i8, ptr %0, i64 8
  %13 = load ptr, ptr %12, align 8
  %14 = getelementptr inbounds i8, ptr %13, i64 4
  %15 = load i32, ptr %14, align 4
  %16 = icmp sgt i32 %11, %15
  br i1 %16, label %36, label %17

17:                                               ; preds = %9
  %18 = load atomic i32, ptr %13 monotonic, align 4
  %19 = icmp ugt i32 %18, 1
  br i1 %19, label %23, label %20

20:                                               ; preds = %17
  %21 = getelementptr inbounds i8, ptr %13, i64 16
  %22 = load i64, ptr %21, align 8
  %.not.i.i = icmp eq i64 %22, 24
  br i1 %.not.i.i, label %_ZN10QByteArray4dataEv.exit, label %23

23:                                               ; preds = %20, %17
  %24 = add i32 %15, 1
  %25 = getelementptr inbounds i8, ptr %13, i64 8
  %26 = load i32, ptr %25, align 8
  %.lobit.i.i.i = lshr i32 %26, 31
  tail call void @_ZN10QByteArray11reallocDataEj6QFlagsIN10QArrayData16AllocationOptionEE(ptr noundef nonnull align 8 dereferenceable(8) %12, i32 noundef %24, i32 %.lobit.i.i.i)
  %.pre.i = load ptr, ptr %12, align 8
  %.phi.trans.insert.i = getelementptr inbounds i8, ptr %.pre.i, i64 16
  %.pre1.i = load i64, ptr %.phi.trans.insert.i, align 8
  %.pre = load i32, ptr %0, align 8
  br label %_ZN10QByteArray4dataEv.exit

_ZN10QByteArray4dataEv.exit:                      ; preds = %20, %23
  %27 = phi i32 [ %4, %20 ], [ %.pre, %23 ]
  %28 = phi i64 [ 24, %20 ], [ %.pre1.i, %23 ]
  %29 = phi ptr [ %13, %20 ], [ %.pre.i, %23 ]
  %30 = getelementptr inbounds i8, ptr %29, i64 %28
  %31 = mul nsw i32 %27, %2
  %32 = add nsw i32 %31, %1
  %33 = sext i32 %32 to i64
  %34 = getelementptr inbounds %"struct.vcg::tri::io::VertexGrid::Vertex", ptr %30, i64 %33, i32 7
  %35 = load i8, ptr %34, align 1
  br label %36

36:                                               ; preds = %3, %9, %_ZN10QByteArray4dataEv.exit
  %.0 = phi i8 [ %35, %_ZN10QByteArray4dataEv.exit ], [ 10, %9 ], [ 10, %3 ]
  ret i8 %.0
}